; Function Attrs: nounwind uwtable
define dso_local ptr @sdsjoin(ptr nocapture noundef readonly %argv, i32 noundef %argc, ptr nocapture noundef readonly %sep) local_unnamed_addr #0 {
entry:
  %usable.i.i = alloca i64, align 8
  call void @llvm.lifetime.start.p0(i64 8, ptr nonnull %usable.i.i)
  %call21.i.i = call ptr @zmalloc_usable(i64 noundef 4, ptr noundef nonnull %usable.i.i) #25
  %cmp23.i.i = icmp eq ptr %call21.i.i, null
  br i1 %cmp23.i.i, label %sdsempty.exit, label %if.end26.i.i

if.end26.i.i:                                     ; preds = %entry
  %add.ptr.i.i = getelementptr inbounds i8, ptr %call21.i.i, i64 3
  %add.ptr37.i.i = getelementptr inbounds i8, ptr %call21.i.i, i64 2
  %0 = load i64, ptr %usable.i.i, align 8
  %sub39.i.i = add i64 %0, -4
  %spec.store.select.i = call i64 @llvm.umin.i64(i64 %sub39.i.i, i64 255)
  store i64 %spec.store.select.i, ptr %usable.i.i, align 8
  store i8 0, ptr %call21.i.i, align 1
  %1 = load i64, ptr %usable.i.i, align 8
  %conv53.i.i = trunc i64 %1 to i8
  %alloc.i.i = getelementptr inbounds i8, ptr %call21.i.i, i64 1
  store i8 %conv53.i.i, ptr %alloc.i.i, align 1
  store i8 1, ptr %add.ptr37.i.i, align 1
  store i8 0, ptr %add.ptr.i.i, align 1
  br label %sdsempty.exit

sdsempty.exit:                                    ; preds = %entry, %if.end26.i.i
  %retval.0.i.i = phi ptr [ %add.ptr.i.i, %if.end26.i.i ], [ null, %entry ]
  call void @llvm.lifetime.end.p0(i64 8, ptr nonnull %usable.i.i)
  %cmp7 = icmp sgt i32 %argc, 0
  br i1 %cmp7, label %for.body.lr.ph, label %for.end

for.body.lr.ph:                                   ; preds = %sdsempty.exit
  %sub = add nsw i32 %argc, -1
  %2 = zext nneg i32 %sub to i64
  %wide.trip.count = zext nneg i32 %argc to i64
  br label %for.body

for.body:                                         ; preds = %for.body.lr.ph, %for.inc
  %indvars.iv = phi i64 [ 0, %for.body.lr.ph ], [ %indvars.iv.next, %for.inc ]
  %join.08 = phi ptr [ %retval.0.i.i, %for.body.lr.ph ], [ %join.1, %for.inc ]
  %arrayidx = getelementptr inbounds ptr, ptr %argv, i64 %indvars.iv
  %3 = load ptr, ptr %arrayidx, align 8
  %call1 = call ptr @sdscat(ptr noundef %join.08, ptr noundef %3)
  %cmp2.not = icmp eq i64 %indvars.iv, %2
  br i1 %cmp2.not, label %for.inc, label %if.then

if.then:                                          ; preds = %for.body
  %call3 = call ptr @sdscat(ptr noundef %call1, ptr noundef %sep)
  br label %for.inc

for.inc:                                          ; preds = %for.body, %if.then
  %join.1 = phi ptr [ %call3, %if.then ], [ %call1, %for.body ]
  %indvars.iv.next = add nuw nsw i64 %indvars.iv, 1
  %exitcond.not = icmp eq i64 %indvars.iv.next, %wide.trip.count
  br i1 %exitcond.not, label %for.end, label %for.body, !llvm.loop !22

for.end:                                          ; preds = %for.inc, %sdsempty.exit
  %join.0.lcssa = phi ptr [ %retval.0.i.i, %sdsempty.exit ], [ %join.1, %for.inc ]
  ret ptr %join.0.lcssa
}